target datalayout = "e-m:e-p270:32:32-p271:32:32-p272:64:64-i64:64-i128:128-f80:128-n8:16:32:64-S128"
target triple = "x86_64-pc-linux-gnu"

%"struct.llvm::AnalysisKey" = type { [8 x i8] }
%"class.llvm::PreservedAnalyses::PreservedAnalysisChecker" = type <{ ptr, ptr, i8, [7 x i8] }>
%"class.llvm::PreservedAnalyses" = type { %"class.llvm::SmallPtrSet", %"class.llvm::SmallPtrSet.97" }
%"class.llvm::SmallPtrSet" = type { %"class.llvm::SmallPtrSetImpl.base", [2 x ptr] }
%"class.llvm::SmallPtrSetImpl.base" = type { %"class.llvm::SmallPtrSetImplBase.base" }
%"class.llvm::SmallPtrSetImplBase.base" = type <{ ptr, ptr, i32, i32, i32 }>
%"class.llvm::SmallPtrSet.97" = type { %"class.llvm::SmallPtrSetImpl.base.99", [2 x ptr] }
%"class.llvm::SmallPtrSetImpl.base.99" = type { %"class.llvm::SmallPtrSetImplBase.base" }
%"class.llvm::SmallPtrSetImplBase" = type <{ ptr, ptr, i32, i32, i32, [4 x i8] }>

@_ZN4llvm17CallGraphAnalysis3KeyE = global %"struct.llvm::AnalysisKey" zeroinitializer, align 8

; Function Attrs: mustprogress nounwind uwtable
define linkonce_odr hidden noundef zeroext i1 @_ZNK4llvm19SmallPtrSetImplBase7isSmallEv(ptr noundef nonnull align 8 dereferenceable(28) %0) #0 comdat align 2 {
  %2 = alloca ptr, align 8
  store ptr %0, ptr %2, align 8
  %3 = load ptr, ptr %2, align 8
  %4 = getelementptr inbounds nuw %"class.llvm::SmallPtrSetImplBase", ptr %3, i32 0, i32 1
  %5 = load ptr, ptr %4, align 8
  %6 = getelementptr inbounds nuw %"class.llvm::SmallPtrSetImplBase", ptr %3, i32 0, i32 0
  %7 = load ptr, ptr %6, align 8
  %8 = icmp eq ptr %5, %7
  ret i1 %8
}

; Function Attrs: mustprogress nounwind uwtable
define linkonce_odr hidden noundef ptr @_ZN4llvm21PointerLikeTypeTraitsIPNS_11AnalysisKeyEE16getAsVoidPointerES2_(ptr noundef %0) #0 comdat align 2 {
  %2 = alloca ptr, align 8
  store ptr %0, ptr %2, align 8
  %3 = load ptr, ptr %2, align 8
  ret ptr %3
}

; Function Attrs: mustprogress nounwind uwtable
define linkonce_odr hidden noundef ptr @_ZNK4llvm19SmallPtrSetImplBase10EndPointerEv(ptr noundef nonnull align 8 dereferenceable(28) %0) #0 comdat align 2 {
  %2 = alloca ptr, align 8
  store ptr %0, ptr %2, align 8
  %3 = load ptr, ptr %2, align 8
  %4 = call noundef zeroext i1 @_ZNK4llvm19SmallPtrSetImplBase7isSmallEv(ptr noundef nonnull align 8 dereferenceable(28) %3)
  br i1 %4, label %5, label %12

5:                                                ; preds = %1
  %6 = getelementptr inbounds nuw %"class.llvm::SmallPtrSetImplBase", ptr %3, i32 0, i32 1
  %7 = load ptr, ptr %6, align 8
  %8 = getelementptr inbounds nuw %"class.llvm::SmallPtrSetImplBase", ptr %3, i32 0, i32 3
  %9 = load i32, ptr %8, align 4
  %10 = zext i32 %9 to i64
  %11 = getelementptr inbounds ptr, ptr %7, i64 %10
  br label %19

12:                                               ; preds = %1
  %13 = getelementptr inbounds nuw %"class.llvm::SmallPtrSetImplBase", ptr %3, i32 0, i32 1
  %14 = load ptr, ptr %13, align 8
  %15 = getelementptr inbounds nuw %"class.llvm::SmallPtrSetImplBase", ptr %3, i32 0, i32 2
  %16 = load i32, ptr %15, align 8
  %17 = zext i32 %16 to i64
  %18 = getelementptr inbounds ptr, ptr %14, i64 %17
  br label %19

19:                                               ; preds = %12, %5
  %20 = phi ptr [ %11, %5 ], [ %18, %12 ]
  ret ptr %20
}

; Function Attrs: mustprogress nounwind uwtable
define linkonce_odr hidden noundef ptr @_ZNK4llvm19SmallPtrSetImplBase8find_impEPKv(ptr noundef nonnull align 8 dereferenceable(28) %0, ptr noundef %1) #0 comdat align 2 {
  %3 = alloca ptr, align 8
  %4 = alloca ptr, align 8
  %5 = alloca ptr, align 8
  %6 = alloca ptr, align 8
  %7 = alloca ptr, align 8
  %8 = alloca ptr, align 8
  store ptr %0, ptr %4, align 8
  store ptr %1, ptr %5, align 8
  %9 = load ptr, ptr %4, align 8
  %10 = call noundef zeroext i1 @_ZNK4llvm19SmallPtrSetImplBase7isSmallEv(ptr noundef nonnull align 8 dereferenceable(28) %9)
  br i1 %10, label %11, label %37

11:                                               ; preds = %2
  %12 = getelementptr inbounds nuw %"class.llvm::SmallPtrSetImplBase", ptr %9, i32 0, i32 0
  %13 = load ptr, ptr %12, align 8
  store ptr %13, ptr %6, align 8
  %14 = getelementptr inbounds nuw %"class.llvm::SmallPtrSetImplBase", ptr %9, i32 0, i32 0
  %15 = load ptr, ptr %14, align 8
  %16 = getelementptr inbounds nuw %"class.llvm::SmallPtrSetImplBase", ptr %9, i32 0, i32 3
  %17 = load i32, ptr %16, align 4
  %18 = zext i32 %17 to i64
  %19 = getelementptr inbounds ptr, ptr %15, i64 %18
  store ptr %19, ptr %7, align 8
  br label %20

20:                                               ; preds = %32, %11
  %21 = load ptr, ptr %6, align 8
  %22 = load ptr, ptr %7, align 8
  %23 = icmp ne ptr %21, %22
  br i1 %23, label %24, label %35

24:                                               ; preds = %20
  %25 = load ptr, ptr %6, align 8
  %26 = load ptr, ptr %25, align 8
  %27 = load ptr, ptr %5, align 8
  %28 = icmp eq ptr %26, %27
  br i1 %28, label %29, label %31

29:                                               ; preds = %24
  %30 = load ptr, ptr %6, align 8
  store ptr %30, ptr %3, align 8
  br label %46

31:                                               ; preds = %24
  br label %32

32:                                               ; preds = %31
  %33 = load ptr, ptr %6, align 8
  %34 = getelementptr inbounds ptr, ptr %33, i32 1
  store ptr %34, ptr %6, align 8
  br label %20, !llvm.loop !14

35:                                               ; preds = %20
  %36 = call noundef ptr @_ZNK4llvm19SmallPtrSetImplBase10EndPointerEv(ptr noundef nonnull align 8 dereferenceable(28) %9)
  store ptr %36, ptr %3, align 8
  br label %46

37:                                               ; preds = %2
  %38 = load ptr, ptr %5, align 8
  %39 = call noundef ptr @_ZNK4llvm19SmallPtrSetImplBase6doFindEPKv(ptr noundef nonnull align 8 dereferenceable(28) %9, ptr noundef %38)
  store ptr %39, ptr %8, align 8
  %40 = load ptr, ptr %8, align 8
  %41 = icmp ne ptr %40, null
  br i1 %41, label %42, label %44

42:                                               ; preds = %37
  %43 = load ptr, ptr %8, align 8
  store ptr %43, ptr %3, align 8
  br label %46

44:                                               ; preds = %37
  %45 = call noundef ptr @_ZNK4llvm19SmallPtrSetImplBase10EndPointerEv(ptr noundef nonnull align 8 dereferenceable(28) %9)
  store ptr %45, ptr %3, align 8
  br label %46

46:                                               ; preds = %44, %42, %35, %29
  %47 = load ptr, ptr %3, align 8
  ret ptr %47
}

; Function Attrs: mustprogress nounwind uwtable
define linkonce_odr hidden noundef ptr @_ZN4llvm21PointerLikeTypeTraitsIPKNS_11AnalysisKeyEE16getAsVoidPointerES3_(ptr noundef %0) #0 comdat align 2 {
  %2 = alloca ptr, align 8
  store ptr %0, ptr %2, align 8
  %3 = load ptr, ptr %2, align 8
  %4 = call noundef ptr @_ZN4llvm21PointerLikeTypeTraitsIPNS_11AnalysisKeyEE16getAsVoidPointerES2_(ptr noundef %3)
  ret ptr %4
}

; Function Attrs: mustprogress nounwind uwtable
define linkonce_odr hidden noundef i32 @_ZNK4llvm15SmallPtrSetImplIPNS_11AnalysisKeyEE5countEPKS1_(ptr noundef nonnull align 8 dereferenceable(28) %0, ptr noundef %1) #0 comdat align 2 {
  %3 = alloca ptr, align 8
  %4 = alloca ptr, align 8
  store ptr %0, ptr %3, align 8
  store ptr %1, ptr %4, align 8
  %5 = load ptr, ptr %3, align 8
  %6 = load ptr, ptr %4, align 8
  %7 = call noundef ptr @_ZN4llvm21PointerLikeTypeTraitsIPKNS_11AnalysisKeyEE16getAsVoidPointerES3_(ptr noundef %6)
  %8 = call noundef ptr @_ZNK4llvm19SmallPtrSetImplBase8find_impEPKv(ptr noundef nonnull align 8 dereferenceable(28) %5, ptr noundef %7)
  %9 = call noundef ptr @_ZNK4llvm19SmallPtrSetImplBase10EndPointerEv(ptr noundef nonnull align 8 dereferenceable(28) %5)
  %10 = icmp ne ptr %8, %9
  %11 = zext i1 %10 to i32
  ret i32 %11
}

; Function Attrs: mustprogress nounwind uwtable
define linkonce_odr hidden void @_ZN4llvm17PreservedAnalyses24PreservedAnalysisCheckerC2ERKS0_PNS_11AnalysisKeyE(ptr noundef nonnull align 8 dereferenceable(17) %0, ptr noundef nonnull align 8 dereferenceable(96) %1, ptr noundef %2) unnamed_addr #0 comdat align 2 {
  %4 = alloca ptr, align 8
  %5 = alloca ptr, align 8
  %6 = alloca ptr, align 8
  store ptr %0, ptr %4, align 8
  store ptr %1, ptr %5, align 8
  store ptr %2, ptr %6, align 8
  %7 = load ptr, ptr %4, align 8
  %8 = getelementptr inbounds nuw %"class.llvm::PreservedAnalyses::PreservedAnalysisChecker", ptr %7, i32 0, i32 0
  %9 = load ptr, ptr %5, align 8
  store ptr %9, ptr %8, align 8
  %10 = getelementptr inbounds nuw %"class.llvm::PreservedAnalyses::PreservedAnalysisChecker", ptr %7, i32 0, i32 1
  %11 = load ptr, ptr %6, align 8
  store ptr %11, ptr %10, align 8
  %12 = getelementptr inbounds nuw %"class.llvm::PreservedAnalyses::PreservedAnalysisChecker", ptr %7, i32 0, i32 2
  %13 = load ptr, ptr %5, align 8
  %14 = getelementptr inbounds nuw %"class.llvm::PreservedAnalyses", ptr %13, i32 0, i32 1
  %15 = load ptr, ptr %6, align 8
  %16 = call noundef i32 @_ZNK4llvm15SmallPtrSetImplIPNS_11AnalysisKeyEE5countEPKS1_(ptr noundef nonnull align 8 dereferenceable(28) %14, ptr noundef %15)
  %17 = icmp ne i32 %16, 0
  %18 = zext i1 %17 to i8
  store i8 %18, ptr %12, align 8
  ret void
}

; Function Attrs: mustprogress nounwind uwtable
define linkonce_odr hidden noundef ptr @_ZN4llvm17AnalysisInfoMixinINS_17CallGraphAnalysisEE2IDEv() #0 comdat align 2 {
  ret ptr @_ZN4llvm17CallGraphAnalysis3KeyE
}

; Function Attrs: mustprogress nounwind uwtable
define linkonce_odr hidden void @_ZNK4llvm17PreservedAnalyses10getCheckerINS_17CallGraphAnalysisEEENS0_24PreservedAnalysisCheckerEv(ptr dead_on_unwind noalias writable sret(%"class.llvm::PreservedAnalyses::PreservedAnalysisChecker") align 8 %0, ptr noundef nonnull align 8 dereferenceable(96) %1) #0 comdat align 2 {
  %3 = alloca ptr, align 8
  store ptr %1, ptr %3, align 8
  %4 = load ptr, ptr %3, align 8
  %5 = call noundef ptr @_ZN4llvm17AnalysisInfoMixinINS_17CallGraphAnalysisEE2IDEv()
  call void @_ZN4llvm17PreservedAnalyses24PreservedAnalysisCheckerC2ERKS0_PNS_11AnalysisKeyE(ptr noundef nonnull align 8 dereferenceable(17) %0, ptr noundef nonnull align 8 dereferenceable(96) %4, ptr noundef %5)
  ret void
}

; Function Attrs: mustprogress nounwind uwtable
define dso_local noundef zeroext i1 @_ZN4llvm9CallGraph10invalidateERNS_6ModuleERKNS_17PreservedAnalysesERNS_15AnalysisManagerIS1_JEE11InvalidatorE(ptr noundef nonnull align 8 dereferenceable(72) %0, ptr noundef nonnull align 8 dereferenceable(857) %1, ptr noundef nonnull align 8 dereferenceable(96) %2, ptr noundef nonnull align 8 dereferenceable(16) %3) #0 align 2 {
  %5 = alloca ptr, align 8
  %6 = alloca ptr, align 8
  %7 = alloca ptr, align 8
  %8 = alloca ptr, align 8
  %9 = alloca %"class.llvm::PreservedAnalyses::PreservedAnalysisChecker", align 8
  store ptr %0, ptr %5, align 8
  store ptr %1, ptr %6, align 8
  store ptr %2, ptr %7, align 8
  store ptr %3, ptr %8, align 8
  %10 = load ptr, ptr %7, align 8
  call void @_ZNK4llvm17PreservedAnalyses10getCheckerINS_17CallGraphAnalysisEEENS0_24PreservedAnalysisCheckerEv(ptr dead_on_unwind writable sret(%"class.llvm::PreservedAnalyses::PreservedAnalysisChecker") align 8 %9, ptr noundef nonnull align 8 dereferenceable(96) %10)
  %11 = call noundef zeroext i1 @_ZN4llvm17PreservedAnalyses24PreservedAnalysisChecker9preservedEv(ptr noundef nonnull align 8 dereferenceable(17) %9)
  br i1 %11, label %14, label %12

12:                                               ; preds = %4
  %13 = call noundef zeroext i1 @_ZN4llvm17PreservedAnalyses24PreservedAnalysisChecker12preservedSetINS_13AllAnalysesOnINS_6ModuleEEEEEbv(ptr noundef nonnull align 8 dereferenceable(17) %9)
  br label %14

14:                                               ; preds = %12, %4
  %15 = phi i1 [ true, %4 ], [ %13, %12 ]
  %16 = xor i1 %15, true
  ret i1 %16
}